target datalayout = "e-m:e-p270:32:32-p271:32:32-p272:64:64-i64:64-i128:128-f80:128-n8:16:32:64-S128"
target triple = "x86_64-pc-linux-gnu"

%struct.Llb_Mgr_t_ = type { ptr, ptr, i32, ptr, ptr, i32, i32, i32, ptr }
%struct.Vec_Ptr_t_ = type { i32, i32, ptr }

; Function Attrs: inlinehint nounwind uwtable
define internal ptr @Vec_PtrEntry(ptr noundef %0, i32 noundef %1) #1 {
  %3 = alloca ptr, align 8
  %4 = alloca i32, align 4
  store ptr %0, ptr %3, align 8, !tbaa !62
  store i32 %1, ptr %4, align 4, !tbaa !50
  %5 = load ptr, ptr %3, align 8, !tbaa !62
  %6 = getelementptr inbounds nuw %struct.Vec_Ptr_t_, ptr %5, i32 0, i32 2
  %7 = load ptr, ptr %6, align 8, !tbaa !74
  %8 = load i32, ptr %4, align 4, !tbaa !50
  %9 = sext i32 %8 to i64
  %10 = getelementptr inbounds ptr, ptr %7, i64 %9
  %11 = load ptr, ptr %10, align 8, !tbaa !77
  ret ptr %11
}

; Function Attrs: inlinehint nounwind uwtable
define internal i32 @Vec_PtrSize(ptr noundef %0) #1 {
  %2 = alloca ptr, align 8
  store ptr %0, ptr %2, align 8, !tbaa !62
  %3 = load ptr, ptr %2, align 8, !tbaa !62
  %4 = getelementptr inbounds nuw %struct.Vec_Ptr_t_, ptr %3, i32 0, i32 1
  %5 = load i32, ptr %4, align 4, !tbaa !71
  ret i32 %5
}

; Function Attrs: nounwind uwtable
define ptr @Llb_Nonlin4Alloc(ptr noundef %0, ptr noundef %1, ptr noundef %2, ptr noundef %3, i32 noundef %4) #0 {
  %6 = alloca ptr, align 8
  %7 = alloca ptr, align 8
  %8 = alloca ptr, align 8
  %9 = alloca ptr, align 8
  %10 = alloca i32, align 4
  %11 = alloca ptr, align 8
  %12 = alloca ptr, align 8
  %13 = alloca i32, align 4
  store ptr %0, ptr %6, align 8, !tbaa !117
  store ptr %1, ptr %7, align 8, !tbaa !62
  store ptr %2, ptr %8, align 8, !tbaa !49
  store ptr %3, ptr %9, align 8, !tbaa !21
  store i32 %4, ptr %10, align 4, !tbaa !50
  call void @llvm.lifetime.start.p0(i64 8, ptr %11) #8
  call void @llvm.lifetime.start.p0(i64 8, ptr %12) #8
  call void @llvm.lifetime.start.p0(i64 4, ptr %13) #8
  %14 = call noalias ptr @calloc(i64 noundef 1, i64 noundef 64) #10
  store ptr %14, ptr %11, align 8, !tbaa !3
  %15 = load ptr, ptr %6, align 8, !tbaa !117
  %16 = load ptr, ptr %11, align 8, !tbaa !3
  %17 = getelementptr inbounds nuw %struct.Llb_Mgr_t_, ptr %16, i32 0, i32 0
  store ptr %15, ptr %17, align 8, !tbaa !31
  %18 = load i32, ptr %10, align 4, !tbaa !50
  %19 = load ptr, ptr %11, align 8, !tbaa !3
  %20 = getelementptr inbounds nuw %struct.Llb_Mgr_t_, ptr %19, i32 0, i32 2
  store i32 %18, ptr %20, align 8, !tbaa !108
  %21 = load ptr, ptr %9, align 8, !tbaa !21
  %22 = load ptr, ptr %11, align 8, !tbaa !3
  %23 = getelementptr inbounds nuw %struct.Llb_Mgr_t_, ptr %22, i32 0, i32 1
  store ptr %21, ptr %23, align 8, !tbaa !68
  %24 = load ptr, ptr %6, align 8, !tbaa !117
  %25 = call i32 @Cudd_ReadSize(ptr noundef %24)
  %26 = load ptr, ptr %11, align 8, !tbaa !3
  %27 = getelementptr inbounds nuw %struct.Llb_Mgr_t_, ptr %26, i32 0, i32 6
  store i32 %25, ptr %27, align 4, !tbaa !56
  %28 = load ptr, ptr %7, align 8, !tbaa !62
  %29 = call i32 @Vec_PtrSize(ptr noundef %28)
  %30 = load ptr, ptr %11, align 8, !tbaa !3
  %31 = getelementptr inbounds nuw %struct.Llb_Mgr_t_, ptr %30, i32 0, i32 5
  store i32 %29, ptr %31, align 8, !tbaa !59
  %32 = load ptr, ptr %11, align 8, !tbaa !3
  %33 = getelementptr inbounds nuw %struct.Llb_Mgr_t_, ptr %32, i32 0, i32 6
  %34 = load i32, ptr %33, align 4, !tbaa !56
  %35 = sext i32 %34 to i64
  %36 = call noalias ptr @calloc(i64 noundef %35, i64 noundef 8) #10
  %37 = load ptr, ptr %11, align 8, !tbaa !3
  %38 = getelementptr inbounds nuw %struct.Llb_Mgr_t_, ptr %37, i32 0, i32 4
  store ptr %36, ptr %38, align 8, !tbaa !10
  %39 = load ptr, ptr %11, align 8, !tbaa !3
  %40 = getelementptr inbounds nuw %struct.Llb_Mgr_t_, ptr %39, i32 0, i32 5
  %41 = load i32, ptr %40, align 8, !tbaa !59
  %42 = mul nsw i32 2, %41
  %43 = add nsw i32 %42, 2
  %44 = sext i32 %43 to i64
  %45 = call noalias ptr @calloc(i64 noundef %44, i64 noundef 8) #10
  %46 = load ptr, ptr %11, align 8, !tbaa !3
  %47 = getelementptr inbounds nuw %struct.Llb_Mgr_t_, ptr %46, i32 0, i32 3
  store ptr %45, ptr %47, align 8, !tbaa !26
  %48 = load ptr, ptr %6, align 8, !tbaa !117
  %49 = call i32 @Cudd_ReadSize(ptr noundef %48)
  %50 = sext i32 %49 to i64
  %51 = mul i64 4, %50
  %52 = call noalias ptr @malloc(i64 noundef %51) #9
  %53 = load ptr, ptr %11, align 8, !tbaa !3
  %54 = getelementptr inbounds nuw %struct.Llb_Mgr_t_, ptr %53, i32 0, i32 8
  store ptr %52, ptr %54, align 8, !tbaa !64
  store i32 0, ptr %13, align 4, !tbaa !50
  br label %55

55:                                               ; preds = %70, %5
  %56 = load i32, ptr %13, align 4, !tbaa !50
  %57 = load ptr, ptr %7, align 8, !tbaa !62
  %58 = call i32 @Vec_PtrSize(ptr noundef %57)
  %59 = icmp slt i32 %56, %58
  br i1 %59, label %60, label %64

60:                                               ; preds = %55
  %61 = load ptr, ptr %7, align 8, !tbaa !62
  %62 = load i32, ptr %13, align 4, !tbaa !50
  %63 = call ptr @Vec_PtrEntry(ptr noundef %61, i32 noundef %62)
  store ptr %63, ptr %12, align 8, !tbaa !49
  br label %64

64:                                               ; preds = %60, %55
  %65 = phi i1 [ false, %55 ], [ true, %60 ]
  br i1 %65, label %66, label %73

66:                                               ; preds = %64
  %67 = load ptr, ptr %11, align 8, !tbaa !3
  %68 = load i32, ptr %13, align 4, !tbaa !50
  %69 = load ptr, ptr %12, align 8, !tbaa !49
  call void @Llb_Nonlin4AddPartition(ptr noundef %67, i32 noundef %68, ptr noundef %69)
  br label %70

70:                                               ; preds = %66
  %71 = load i32, ptr %13, align 4, !tbaa !50
  %72 = add nsw i32 %71, 1
  store i32 %72, ptr %13, align 4, !tbaa !50
  br label %55, !llvm.loop !118

73:                                               ; preds = %64
  %74 = load ptr, ptr %8, align 8, !tbaa !49
  %75 = icmp ne ptr %74, null
  br i1 %75, label %76, label %83

76:                                               ; preds = %73
  %77 = load ptr, ptr %11, align 8, !tbaa !3
  %78 = load ptr, ptr %11, align 8, !tbaa !3
  %79 = getelementptr inbounds nuw %struct.Llb_Mgr_t_, ptr %78, i32 0, i32 5
  %80 = load i32, ptr %79, align 8, !tbaa !59
  %81 = add nsw i32 %80, 1
  store i32 %81, ptr %79, align 8, !tbaa !59
  %82 = load ptr, ptr %8, align 8, !tbaa !49
  call void @Llb_Nonlin4AddPartition(ptr noundef %77, i32 noundef %80, ptr noundef %82)
  br label %83

83:                                               ; preds = %76, %73
  %84 = load ptr, ptr %11, align 8, !tbaa !3
  call void @llvm.lifetime.end.p0(i64 4, ptr %13) #8
  call void @llvm.lifetime.end.p0(i64 8, ptr %12) #8
  call void @llvm.lifetime.end.p0(i64 8, ptr %11) #8
  ret ptr %84
}