; Function Attrs: nounwind uwtable
define noalias noundef ptr @Llb_Nonlin4Alloc(ptr noundef %0, ptr noundef readonly captures(none) %1, ptr noundef %2, ptr noundef %3, i32 noundef %4) local_unnamed_addr #2 {
  %6 = tail call noalias dereferenceable_or_null(64) ptr @calloc(i64 noundef 1, i64 noundef 64) #17
  store ptr %0, ptr %6, align 8, !tbaa !28
  %7 = getelementptr inbounds nuw i8, ptr %6, i64 16
  store i32 %4, ptr %7, align 8, !tbaa !98
  %8 = getelementptr inbounds nuw i8, ptr %6, i64 8
  store ptr %3, ptr %8, align 8, !tbaa !69
  %9 = tail call i32 @Cudd_ReadSize(ptr noundef %0) #14
  %10 = getelementptr inbounds nuw i8, ptr %6, i64 44
  store i32 %9, ptr %10, align 4, !tbaa !51
  %11 = getelementptr i8, ptr %1, i64 4
  %.val29 = load i32, ptr %11, align 4, !tbaa !67
  %12 = getelementptr inbounds nuw i8, ptr %6, i64 40
  store i32 %.val29, ptr %12, align 8, !tbaa !52
  %13 = sext i32 %9 to i64
  %14 = tail call noalias ptr @calloc(i64 noundef %13, i64 noundef 8) #17
  %15 = getelementptr inbounds nuw i8, ptr %6, i64 32
  store ptr %14, ptr %15, align 8, !tbaa !3
  %16 = shl nsw i32 %.val29, 1
  %17 = add nsw i32 %16, 2
  %18 = sext i32 %17 to i64
  %19 = tail call noalias ptr @calloc(i64 noundef %18, i64 noundef 8) #17
  %20 = getelementptr inbounds nuw i8, ptr %6, i64 24
  store ptr %19, ptr %20, align 8, !tbaa !21
  %21 = tail call i32 @Cudd_ReadSize(ptr noundef %0) #14
  %22 = sext i32 %21 to i64
  %23 = shl nsw i64 %22, 2
  %24 = tail call noalias ptr @malloc(i64 noundef %23) #16
  %25 = getelementptr inbounds nuw i8, ptr %6, i64 56
  store ptr %24, ptr %25, align 8, !tbaa !57
  %.val31 = load i32, ptr %11, align 4, !tbaa !67
  %26 = icmp sgt i32 %.val31, 0
  br i1 %26, label %.lr.ph, label %.critedge

.lr.ph:                                           ; preds = %5
  %27 = getelementptr i8, ptr %1, i64 8
  br label %28

28:                                               ; preds = %.lr.ph, %28
  %indvars.iv = phi i64 [ 0, %.lr.ph ], [ %indvars.iv.next, %28 ]
  %.val30 = load ptr, ptr %27, align 8, !tbaa !62
  %29 = getelementptr inbounds nuw ptr, ptr %.val30, i64 %indvars.iv
  %30 = load ptr, ptr %29, align 8, !tbaa !65
  %31 = trunc nuw nsw i64 %indvars.iv to i32
  tail call void @Llb_Nonlin4AddPartition(ptr noundef nonnull %6, i32 noundef %31, ptr noundef %30)
  %indvars.iv.next = add nuw nsw i64 %indvars.iv, 1
  %.val = load i32, ptr %11, align 4, !tbaa !67
  %32 = sext i32 %.val to i64
  %33 = icmp slt i64 %indvars.iv.next, %32
  br i1 %33, label %28, label %.critedge, !llvm.loop !104

.critedge:                                        ; preds = %28, %5
  %.not = icmp eq ptr %2, null
  br i1 %.not, label %37, label %34

34:                                               ; preds = %.critedge
  %35 = load i32, ptr %12, align 8, !tbaa !52
  %36 = add nsw i32 %35, 1
  store i32 %36, ptr %12, align 8, !tbaa !52
  tail call void @Llb_Nonlin4AddPartition(ptr noundef nonnull %6, i32 noundef %35, ptr noundef nonnull %2)
  br label %37

37:                                               ; preds = %34, %.critedge
  ret ptr %6
}